; Function Attrs: nofree norecurse nosync nounwind memory(argmem: readwrite) uwtable
define void @Acb_VerilogRemoveComments(ptr noundef captures(none) %0) local_unnamed_addr #2 {
  br label %2

2:                                                ; preds = %.critedge, %1
  %.0 = phi ptr [ %0, %1 ], [ %11, %.critedge ]
  %3 = load i8, ptr %.0, align 1
  switch i8 %3, label %.critedge [
    i8 0, label %12
    i8 47, label %4
  ]

4:                                                ; preds = %2
  %5 = getelementptr inbounds nuw i8, ptr %.0, i64 1
  %6 = load i8, ptr %5, align 1
  %7 = icmp eq i8 %6, 47
  br i1 %7, label %.preheader, label %.critedge

.preheader:                                       ; preds = %4, %9
  %8 = phi i8 [ %.pr, %9 ], [ 47, %4 ]
  %.1 = phi ptr [ %10, %9 ], [ %.0, %4 ]
  switch i8 %8, label %9 [
    i8 0, label %.critedge
    i8 10, label %.critedge
  ]

9:                                                ; preds = %.preheader
  %10 = getelementptr inbounds nuw i8, ptr %.1, i64 1
  store i8 32, ptr %.1, align 1
  %.pr = load i8, ptr %10, align 1
  br label %.preheader, !llvm.loop !7

.critedge:                                        ; preds = %.preheader, %.preheader, %2, %4
  %.2 = phi ptr [ %.0, %4 ], [ %.0, %2 ], [ %.1, %.preheader ], [ %.1, %.preheader ]
  %11 = getelementptr inbounds nuw i8, ptr %.2, i64 1
  br label %2, !llvm.loop !8

12:                                               ; preds = %2
  ret void
}